target datalayout = "e-m:e-p270:32:32-p271:32:32-p272:64:64-i64:64-i128:128-f80:128-n8:16:32:64-S128"
target triple = "x86_64-pc-linux-gnu"

%struct.stbtt_fontinfo = type { ptr, ptr, i32, i32, i32, i32, i32, i32, i32, i32, i32, i32 }

; Function Attrs: mustprogress nounwind uwtable
define internal noundef i32 @_ZL7ttULONGPKh(ptr noundef %0) #1 {
  %2 = alloca ptr, align 8
  store ptr %0, ptr %2, align 8
  %3 = load ptr, ptr %2, align 8
  %4 = getelementptr inbounds i8, ptr %3, i64 0
  %5 = load i8, ptr %4, align 1
  %6 = zext i8 %5 to i32
  %7 = shl i32 %6, 24
  %8 = load ptr, ptr %2, align 8
  %9 = getelementptr inbounds i8, ptr %8, i64 1
  %10 = load i8, ptr %9, align 1
  %11 = zext i8 %10 to i32
  %12 = shl i32 %11, 16
  %13 = add nsw i32 %7, %12
  %14 = load ptr, ptr %2, align 8
  %15 = getelementptr inbounds i8, ptr %14, i64 2
  %16 = load i8, ptr %15, align 1
  %17 = zext i8 %16 to i32
  %18 = shl i32 %17, 8
  %19 = add nsw i32 %13, %18
  %20 = load ptr, ptr %2, align 8
  %21 = getelementptr inbounds i8, ptr %20, i64 3
  %22 = load i8, ptr %21, align 1
  %23 = zext i8 %22 to i32
  %24 = add nsw i32 %19, %23
  ret i32 %24
}

; Function Attrs: mustprogress nounwind uwtable
define internal noundef zeroext i16 @_ZL8ttUSHORTPKh(ptr noundef %0) #1 {
  %2 = alloca ptr, align 8
  store ptr %0, ptr %2, align 8
  %3 = load ptr, ptr %2, align 8
  %4 = getelementptr inbounds i8, ptr %3, i64 0
  %5 = load i8, ptr %4, align 1
  %6 = zext i8 %5 to i32
  %7 = mul nsw i32 %6, 256
  %8 = load ptr, ptr %2, align 8
  %9 = getelementptr inbounds i8, ptr %8, i64 1
  %10 = load i8, ptr %9, align 1
  %11 = zext i8 %10 to i32
  %12 = add nsw i32 %7, %11
  %13 = trunc i32 %12 to i16
  ret i16 %13
}

; Function Attrs: mustprogress nounwind uwtable
define internal noundef signext i16 @_ZL7ttSHORTPKh(ptr noundef %0) #1 {
  %2 = alloca ptr, align 8
  store ptr %0, ptr %2, align 8
  %3 = load ptr, ptr %2, align 8
  %4 = getelementptr inbounds i8, ptr %3, i64 0
  %5 = load i8, ptr %4, align 1
  %6 = zext i8 %5 to i32
  %7 = mul nsw i32 %6, 256
  %8 = load ptr, ptr %2, align 8
  %9 = getelementptr inbounds i8, ptr %8, i64 1
  %10 = load i8, ptr %9, align 1
  %11 = zext i8 %10 to i32
  %12 = add nsw i32 %7, %11
  %13 = trunc i32 %12 to i16
  ret i16 %13
}

; Function Attrs: mustprogress nounwind uwtable
define internal noundef i32 @_ZL20stbtt__GetGlyfOffsetPK14stbtt_fontinfoi(ptr noundef %0, i32 noundef %1) #1 {
  %3 = alloca i32, align 4
  %4 = alloca ptr, align 8
  %5 = alloca i32, align 4
  %6 = alloca i32, align 4
  %7 = alloca i32, align 4
  store ptr %0, ptr %4, align 8
  store i32 %1, ptr %5, align 4
  %8 = load i32, ptr %5, align 4
  %9 = load ptr, ptr %4, align 8
  %10 = getelementptr inbounds %struct.stbtt_fontinfo, ptr %9, i32 0, i32 3
  %11 = load i32, ptr %10, align 4
  %12 = icmp sge i32 %8, %11
  br i1 %12, label %13, label %14

13:                                               ; preds = %2
  store i32 -1, ptr %3, align 4
  br label %110

14:                                               ; preds = %2
  %15 = load ptr, ptr %4, align 8
  %16 = getelementptr inbounds %struct.stbtt_fontinfo, ptr %15, i32 0, i32 11
  %17 = load i32, ptr %16, align 4
  %18 = icmp sge i32 %17, 2
  br i1 %18, label %19, label %20

19:                                               ; preds = %14
  store i32 -1, ptr %3, align 4
  br label %110

20:                                               ; preds = %14
  %21 = load ptr, ptr %4, align 8
  %22 = getelementptr inbounds %struct.stbtt_fontinfo, ptr %21, i32 0, i32 11
  %23 = load i32, ptr %22, align 4
  %24 = icmp eq i32 %23, 0
  br i1 %24, label %25, label %65

25:                                               ; preds = %20
  %26 = load ptr, ptr %4, align 8
  %27 = getelementptr inbounds %struct.stbtt_fontinfo, ptr %26, i32 0, i32 6
  %28 = load i32, ptr %27, align 8
  %29 = load ptr, ptr %4, align 8
  %30 = getelementptr inbounds %struct.stbtt_fontinfo, ptr %29, i32 0, i32 1
  %31 = load ptr, ptr %30, align 8
  %32 = load ptr, ptr %4, align 8
  %33 = getelementptr inbounds %struct.stbtt_fontinfo, ptr %32, i32 0, i32 4
  %34 = load i32, ptr %33, align 8
  %35 = sext i32 %34 to i64
  %36 = getelementptr inbounds i8, ptr %31, i64 %35
  %37 = load i32, ptr %5, align 4
  %38 = mul nsw i32 %37, 2
  %39 = sext i32 %38 to i64
  %40 = getelementptr inbounds i8, ptr %36, i64 %39
  %41 = call noundef zeroext i16 @_ZL8ttUSHORTPKh(ptr noundef %40)
  %42 = zext i16 %41 to i32
  %43 = mul nsw i32 %42, 2
  %44 = add nsw i32 %28, %43
  store i32 %44, ptr %6, align 4
  %45 = load ptr, ptr %4, align 8
  %46 = getelementptr inbounds %struct.stbtt_fontinfo, ptr %45, i32 0, i32 6
  %47 = load i32, ptr %46, align 8
  %48 = load ptr, ptr %4, align 8
  %49 = getelementptr inbounds %struct.stbtt_fontinfo, ptr %48, i32 0, i32 1
  %50 = load ptr, ptr %49, align 8
  %51 = load ptr, ptr %4, align 8
  %52 = getelementptr inbounds %struct.stbtt_fontinfo, ptr %51, i32 0, i32 4
  %53 = load i32, ptr %52, align 8
  %54 = sext i32 %53 to i64
  %55 = getelementptr inbounds i8, ptr %50, i64 %54
  %56 = load i32, ptr %5, align 4
  %57 = mul nsw i32 %56, 2
  %58 = sext i32 %57 to i64
  %59 = getelementptr inbounds i8, ptr %55, i64 %58
  %60 = getelementptr inbounds i8, ptr %59, i64 2
  %61 = call noundef zeroext i16 @_ZL8ttUSHORTPKh(ptr noundef %60)
  %62 = zext i16 %61 to i32
  %63 = mul nsw i32 %62, 2
  %64 = add nsw i32 %47, %63
  store i32 %64, ptr %7, align 4
  br label %101

65:                                               ; preds = %20
  %66 = load ptr, ptr %4, align 8
  %67 = getelementptr inbounds %struct.stbtt_fontinfo, ptr %66, i32 0, i32 6
  %68 = load i32, ptr %67, align 8
  %69 = load ptr, ptr %4, align 8
  %70 = getelementptr inbounds %struct.stbtt_fontinfo, ptr %69, i32 0, i32 1
  %71 = load ptr, ptr %70, align 8
  %72 = load ptr, ptr %4, align 8
  %73 = getelementptr inbounds %struct.stbtt_fontinfo, ptr %72, i32 0, i32 4
  %74 = load i32, ptr %73, align 8
  %75 = sext i32 %74 to i64
  %76 = getelementptr inbounds i8, ptr %71, i64 %75
  %77 = load i32, ptr %5, align 4
  %78 = mul nsw i32 %77, 4
  %79 = sext i32 %78 to i64
  %80 = getelementptr inbounds i8, ptr %76, i64 %79
  %81 = call noundef i32 @_ZL7ttULONGPKh(ptr noundef %80)
  %82 = add i32 %68, %81
  store i32 %82, ptr %6, align 4
  %83 = load ptr, ptr %4, align 8
  %84 = getelementptr inbounds %struct.stbtt_fontinfo, ptr %83, i32 0, i32 6
  %85 = load i32, ptr %84, align 8
  %86 = load ptr, ptr %4, align 8
  %87 = getelementptr inbounds %struct.stbtt_fontinfo, ptr %86, i32 0, i32 1
  %88 = load ptr, ptr %87, align 8
  %89 = load ptr, ptr %4, align 8
  %90 = getelementptr inbounds %struct.stbtt_fontinfo, ptr %89, i32 0, i32 4
  %91 = load i32, ptr %90, align 8
  %92 = sext i32 %91 to i64
  %93 = getelementptr inbounds i8, ptr %88, i64 %92
  %94 = load i32, ptr %5, align 4
  %95 = mul nsw i32 %94, 4
  %96 = sext i32 %95 to i64
  %97 = getelementptr inbounds i8, ptr %93, i64 %96
  %98 = getelementptr inbounds i8, ptr %97, i64 4
  %99 = call noundef i32 @_ZL7ttULONGPKh(ptr noundef %98)
  %100 = add i32 %85, %99
  store i32 %100, ptr %7, align 4
  br label %101

101:                                              ; preds = %65, %25
  %102 = load i32, ptr %6, align 4
  %103 = load i32, ptr %7, align 4
  %104 = icmp eq i32 %102, %103
  br i1 %104, label %105, label %106

105:                                              ; preds = %101
  br label %108

106:                                              ; preds = %101
  %107 = load i32, ptr %6, align 4
  br label %108

108:                                              ; preds = %106, %105
  %109 = phi i32 [ -1, %105 ], [ %107, %106 ]
  store i32 %109, ptr %3, align 4
  br label %110

110:                                              ; preds = %108, %19, %13
  %111 = load i32, ptr %3, align 4
  ret i32 %111
}

; Function Attrs: mustprogress uwtable
define dso_local i32 @stbtt_IsGlyphEmpty(ptr noundef %0, i32 noundef %1) #0 {
  %3 = alloca i32, align 4
  %4 = alloca ptr, align 8
  %5 = alloca i32, align 4
  %6 = alloca i16, align 2
  %7 = alloca i32, align 4
  store ptr %0, ptr %4, align 8
  store i32 %1, ptr %5, align 4
  %8 = load ptr, ptr %4, align 8
  %9 = load i32, ptr %5, align 4
  %10 = call noundef i32 @_ZL20stbtt__GetGlyfOffsetPK14stbtt_fontinfoi(ptr noundef %8, i32 noundef %9)
  store i32 %10, ptr %7, align 4
  %11 = load i32, ptr %7, align 4
  %12 = icmp slt i32 %11, 0
  br i1 %12, label %13, label %14

13:                                               ; preds = %2
  store i32 1, ptr %3, align 4
  br label %26

14:                                               ; preds = %2
  %15 = load ptr, ptr %4, align 8
  %16 = getelementptr inbounds %struct.stbtt_fontinfo, ptr %15, i32 0, i32 1
  %17 = load ptr, ptr %16, align 8
  %18 = load i32, ptr %7, align 4
  %19 = sext i32 %18 to i64
  %20 = getelementptr inbounds i8, ptr %17, i64 %19
  %21 = call noundef signext i16 @_ZL7ttSHORTPKh(ptr noundef %20)
  store i16 %21, ptr %6, align 2
  %22 = load i16, ptr %6, align 2
  %23 = sext i16 %22 to i32
  %24 = icmp eq i32 %23, 0
  %25 = zext i1 %24 to i32
  store i32 %25, ptr %3, align 4
  br label %26

26:                                               ; preds = %14, %13
  %27 = load i32, ptr %3, align 4
  ret i32 %27
}