; Function Attrs: mustprogress nofree norecurse nosync nounwind willreturn memory(read, inaccessiblemem: none) uwtable
define dso_local range(i32 0, 2) i32 @stbtt_IsGlyphEmpty(ptr noundef readonly captures(none) %0, i32 noundef %1) local_unnamed_addr #2 {
  %3 = getelementptr inbounds nuw i8, ptr %0, i64 20
  %4 = load i32, ptr %3, align 4
  %.not.i = icmp slt i32 %1, %4
  br i1 %.not.i, label %5, label %_ZL20stbtt__GetGlyfOffsetPK14stbtt_fontinfoi.exit.thread

5:                                                ; preds = %2
  %6 = getelementptr inbounds nuw i8, ptr %0, i64 52
  %7 = load i32, ptr %6, align 4
  %8 = icmp sgt i32 %7, 1
  br i1 %8, label %_ZL20stbtt__GetGlyfOffsetPK14stbtt_fontinfoi.exit.thread, label %9

9:                                                ; preds = %5
  %10 = icmp eq i32 %7, 0
  %11 = getelementptr inbounds nuw i8, ptr %0, i64 32
  %12 = load i32, ptr %11, align 8
  %13 = getelementptr inbounds nuw i8, ptr %0, i64 8
  %14 = load ptr, ptr %13, align 8
  %15 = getelementptr inbounds nuw i8, ptr %0, i64 24
  %16 = load i32, ptr %15, align 8
  %17 = sext i32 %16 to i64
  %18 = getelementptr inbounds i8, ptr %14, i64 %17
  br i1 %10, label %19, label %36

19:                                               ; preds = %9
  %20 = shl nsw i32 %1, 1
  %21 = sext i32 %20 to i64
  %22 = getelementptr inbounds i8, ptr %18, i64 %21
  %.val28.i = load i8, ptr %22, align 1
  %23 = getelementptr i8, ptr %22, i64 1
  %.val29.i = load i8, ptr %23, align 1
  %24 = zext i8 %.val28.i to i32
  %25 = zext i8 %.val29.i to i32
  %26 = shl nuw nsw i32 %24, 9
  %27 = shl nuw nsw i32 %25, 1
  %28 = or disjoint i32 %27, %26
  %29 = getelementptr inbounds nuw i8, ptr %22, i64 2
  %.val.i = load i8, ptr %29, align 1
  %30 = getelementptr i8, ptr %22, i64 3
  %.val27.i = load i8, ptr %30, align 1
  %31 = zext i8 %.val.i to i32
  %32 = zext i8 %.val27.i to i32
  %33 = shl nuw nsw i32 %31, 9
  %34 = shl nuw nsw i32 %32, 1
  %35 = or disjoint i32 %34, %33
  br label %75

36:                                               ; preds = %9
  %37 = shl nsw i32 %1, 2
  %38 = sext i32 %37 to i64
  %39 = getelementptr inbounds i8, ptr %18, i64 %38
  %40 = load i8, ptr %39, align 1
  %41 = zext i8 %40 to i32
  %42 = shl nuw i32 %41, 24
  %43 = getelementptr inbounds nuw i8, ptr %39, i64 1
  %44 = load i8, ptr %43, align 1
  %45 = zext i8 %44 to i32
  %46 = shl nuw nsw i32 %45, 16
  %47 = or disjoint i32 %46, %42
  %48 = getelementptr inbounds nuw i8, ptr %39, i64 2
  %49 = load i8, ptr %48, align 1
  %50 = zext i8 %49 to i32
  %51 = shl nuw nsw i32 %50, 8
  %52 = or disjoint i32 %47, %51
  %53 = getelementptr inbounds nuw i8, ptr %39, i64 3
  %54 = load i8, ptr %53, align 1
  %55 = zext i8 %54 to i32
  %56 = or disjoint i32 %52, %55
  %57 = getelementptr inbounds nuw i8, ptr %39, i64 4
  %58 = load i8, ptr %57, align 1
  %59 = zext i8 %58 to i32
  %60 = shl nuw i32 %59, 24
  %61 = getelementptr inbounds nuw i8, ptr %39, i64 5
  %62 = load i8, ptr %61, align 1
  %63 = zext i8 %62 to i32
  %64 = shl nuw nsw i32 %63, 16
  %65 = or disjoint i32 %64, %60
  %66 = getelementptr inbounds nuw i8, ptr %39, i64 6
  %67 = load i8, ptr %66, align 1
  %68 = zext i8 %67 to i32
  %69 = shl nuw nsw i32 %68, 8
  %70 = or disjoint i32 %65, %69
  %71 = getelementptr inbounds nuw i8, ptr %39, i64 7
  %72 = load i8, ptr %71, align 1
  %73 = zext i8 %72 to i32
  %74 = or disjoint i32 %70, %73
  br label %75

75:                                               ; preds = %36, %19
  %.sink.i = phi i32 [ %74, %36 ], [ %35, %19 ]
  %.pn.i = phi i32 [ %56, %36 ], [ %28, %19 ]
  %.023.i = add i32 %.pn.i, %12
  %76 = icmp eq i32 %.pn.i, %.sink.i
  %77 = icmp slt i32 %.023.i, 0
  %or.cond = select i1 %76, i1 true, i1 %77
  br i1 %or.cond, label %_ZL20stbtt__GetGlyfOffsetPK14stbtt_fontinfoi.exit.thread, label %78

78:                                               ; preds = %75
  %79 = zext nneg i32 %.023.i to i64
  %80 = getelementptr inbounds nuw i8, ptr %14, i64 %79
  %.val = load i8, ptr %80, align 1
  %81 = getelementptr i8, ptr %80, i64 1
  %.val7 = load i8, ptr %81, align 1
  %82 = zext i8 %.val to i16
  %83 = shl nuw i16 %82, 8
  %84 = zext i8 %.val7 to i16
  %85 = or disjoint i16 %83, %84
  %86 = icmp eq i16 %85, 0
  %87 = zext i1 %86 to i32
  br label %_ZL20stbtt__GetGlyfOffsetPK14stbtt_fontinfoi.exit.thread

_ZL20stbtt__GetGlyfOffsetPK14stbtt_fontinfoi.exit.thread: ; preds = %75, %5, %2, %78
  %.0 = phi i32 [ %87, %78 ], [ 1, %2 ], [ 1, %5 ], [ 1, %75 ]
  ret i32 %.0
}